; ModuleID = '6/1052.c'
source_filename = "6/1052.c"
target datalayout = "e-m:e-p270:32:32-p271:32:32-p272:64:64-i64:64-f80:128-n8:16:32:64-S128"
target triple = "x86_64-pc-linux-gnu"

@.str = private unnamed_addr constant [3 x i8] c"%d\00", align 1
@.str.1 = private unnamed_addr constant [5 x i8] c"%d%d\00", align 1
@.str.2 = private unnamed_addr constant [4 x i8] c"%d\0A\00", align 1

; Function Attrs: noinline nounwind uwtable
define dso_local i32 @main() #0 {
  %1 = alloca i32, align 4
  %2 = alloca i32, align 4
  %3 = alloca i32, align 4
  %4 = alloca i32, align 4
  %5 = alloca i32, align 4
  %6 = alloca i32, align 4
  %7 = alloca i32, align 4
  %8 = alloca i32, align 4
  %9 = alloca i32, align 4
  %10 = alloca [100 x [100 x i32]], align 16
  store i32 0, i32* %1, align 4
  store i32 0, i32* %9, align 4
  %11 = call i32 (i8*, ...) @__isoc99_scanf(i8* getelementptr inbounds ([3 x i8], [3 x i8]* @.str, i64 0, i64 0), i32* %4)
  store i32 0, i32* %7, align 4
  br label %12

12:                                               ; preds = %139, %0
  %13 = load i32, i32* %7, align 4
  %14 = load i32, i32* %4, align 4
  %15 = icmp slt i32 %13, %14
  br i1 %15, label %16, label %142

16:                                               ; preds = %12
  %17 = call i32 (i8*, ...) @__isoc99_scanf(i8* getelementptr inbounds ([5 x i8], [5 x i8]* @.str.1, i64 0, i64 0), i32* %2, i32* %3)
  store i32 0, i32* %5, align 4
  br label %18

18:                                               ; preds = %39, %16
  %19 = load i32, i32* %5, align 4
  %20 = load i32, i32* %2, align 4
  %21 = icmp slt i32 %19, %20
  br i1 %21, label %22, label %42

22:                                               ; preds = %18
  store i32 0, i32* %6, align 4
  br label %23

23:                                               ; preds = %35, %22
  %24 = load i32, i32* %6, align 4
  %25 = load i32, i32* %3, align 4
  %26 = icmp slt i32 %24, %25
  br i1 %26, label %27, label %38

27:                                               ; preds = %23
  %28 = load i32, i32* %5, align 4
  %29 = sext i32 %28 to i64
  %30 = getelementptr inbounds [100 x [100 x i32]], [100 x [100 x i32]]* %10, i64 0, i64 %29
  %31 = load i32, i32* %6, align 4
  %32 = sext i32 %31 to i64
  %33 = getelementptr inbounds [100 x i32], [100 x i32]* %30, i64 0, i64 %32
  %34 = call i32 (i8*, ...) @__isoc99_scanf(i8* getelementptr inbounds ([3 x i8], [3 x i8]* @.str, i64 0, i64 0), i32* %33)
  br label %35

35:                                               ; preds = %27
  %36 = load i32, i32* %6, align 4
  %37 = add nsw i32 %36, 1
  store i32 %37, i32* %6, align 4
  br label %23

38:                                               ; preds = %23
  br label %39

39:                                               ; preds = %38
  %40 = load i32, i32* %5, align 4
  %41 = add nsw i32 %40, 1
  store i32 %41, i32* %5, align 4
  br label %18

42:                                               ; preds = %18
  %43 = load i32, i32* %2, align 4
  %44 = load i32, i32* %3, align 4
  %45 = icmp eq i32 %43, %44
  br i1 %45, label %46, label %54

46:                                               ; preds = %42
  %47 = load i32, i32* %3, align 4
  %48 = icmp eq i32 %47, 1
  br i1 %48, label %49, label %54

49:                                               ; preds = %46
  %50 = getelementptr inbounds [100 x [100 x i32]], [100 x [100 x i32]]* %10, i64 0, i64 0
  %51 = getelementptr inbounds [100 x i32], [100 x i32]* %50, i64 0, i64 0
  %52 = load i32, i32* %51, align 16
  %53 = call i32 (i8*, ...) @printf(i8* getelementptr inbounds ([3 x i8], [3 x i8]* @.str, i64 0, i64 0), i32 %52)
  br label %138

54:                                               ; preds = %46, %42
  store i32 0, i32* %6, align 4
  br label %55

55:                                               ; preds = %77, %54
  %56 = load i32, i32* %6, align 4
  %57 = load i32, i32* %3, align 4
  %58 = icmp slt i32 %56, %57
  br i1 %58, label %59, label %80

59:                                               ; preds = %55
  %60 = getelementptr inbounds [100 x [100 x i32]], [100 x [100 x i32]]* %10, i64 0, i64 0
  %61 = load i32, i32* %6, align 4
  %62 = sext i32 %61 to i64
  %63 = getelementptr inbounds [100 x i32], [100 x i32]* %60, i64 0, i64 %62
  %64 = load i32, i32* %63, align 4
  %65 = load i32, i32* %9, align 4
  %66 = add nsw i32 %65, %64
  store i32 %66, i32* %9, align 4
  %67 = load i32, i32* %2, align 4
  %68 = sub nsw i32 %67, 1
  %69 = sext i32 %68 to i64
  %70 = getelementptr inbounds [100 x [100 x i32]], [100 x [100 x i32]]* %10, i64 0, i64 %69
  %71 = load i32, i32* %6, align 4
  %72 = sext i32 %71 to i64
  %73 = getelementptr inbounds [100 x i32], [100 x i32]* %70, i64 0, i64 %72
  %74 = load i32, i32* %73, align 4
  %75 = load i32, i32* %9, align 4
  %76 = add nsw i32 %75, %74
  store i32 %76, i32* %9, align 4
  br label %77

77:                                               ; preds = %59
  %78 = load i32, i32* %6, align 4
  %79 = add nsw i32 %78, 1
  store i32 %79, i32* %6, align 4
  br label %55

80:                                               ; preds = %55
  store i32 0, i32* %5, align 4
  br label %81

81:                                               ; preds = %103, %80
  %82 = load i32, i32* %5, align 4
  %83 = load i32, i32* %2, align 4
  %84 = icmp slt i32 %82, %83
  br i1 %84, label %85, label %106

85:                                               ; preds = %81
  %86 = load i32, i32* %5, align 4
  %87 = sext i32 %86 to i64
  %88 = getelementptr inbounds [100 x [100 x i32]], [100 x [100 x i32]]* %10, i64 0, i64 %87
  %89 = getelementptr inbounds [100 x i32], [100 x i32]* %88, i64 0, i64 0
  %90 = load i32, i32* %89, align 16
  %91 = load i32, i32* %9, align 4
  %92 = add nsw i32 %91, %90
  store i32 %92, i32* %9, align 4
  %93 = load i32, i32* %5, align 4
  %94 = sext i32 %93 to i64
  %95 = getelementptr inbounds [100 x [100 x i32]], [100 x [100 x i32]]* %10, i64 0, i64 %94
  %96 = load i32, i32* %3, align 4
  %97 = sub nsw i32 %96, 1
  %98 = sext i32 %97 to i64
  %99 = getelementptr inbounds [100 x i32], [100 x i32]* %95, i64 0, i64 %98
  %100 = load i32, i32* %99, align 4
  %101 = load i32, i32* %9, align 4
  %102 = add nsw i32 %101, %100
  store i32 %102, i32* %9, align 4
  br label %103

103:                                              ; preds = %85
  %104 = load i32, i32* %5, align 4
  %105 = add nsw i32 %104, 1
  store i32 %105, i32* %5, align 4
  br label %81

106:                                              ; preds = %81
  %107 = load i32, i32* %9, align 4
  %108 = getelementptr inbounds [100 x [100 x i32]], [100 x [100 x i32]]* %10, i64 0, i64 0
  %109 = getelementptr inbounds [100 x i32], [100 x i32]* %108, i64 0, i64 0
  %110 = load i32, i32* %109, align 16
  %111 = sub nsw i32 %107, %110
  %112 = getelementptr inbounds [100 x [100 x i32]], [100 x [100 x i32]]* %10, i64 0, i64 0
  %113 = load i32, i32* %3, align 4
  %114 = sub nsw i32 %113, 1
  %115 = sext i32 %114 to i64
  %116 = getelementptr inbounds [100 x i32], [100 x i32]* %112, i64 0, i64 %115
  %117 = load i32, i32* %116, align 4
  %118 = sub nsw i32 %111, %117
  %119 = load i32, i32* %2, align 4
  %120 = sub nsw i32 %119, 1
  %121 = sext i32 %120 to i64
  %122 = getelementptr inbounds [100 x [100 x i32]], [100 x [100 x i32]]* %10, i64 0, i64 %121
  %123 = getelementptr inbounds [100 x i32], [100 x i32]* %122, i64 0, i64 0
  %124 = load i32, i32* %123, align 16
  %125 = sub nsw i32 %118, %124
  %126 = load i32, i32* %2, align 4
  %127 = sub nsw i32 %126, 1
  %128 = sext i32 %127 to i64
  %129 = getelementptr inbounds [100 x [100 x i32]], [100 x [100 x i32]]* %10, i64 0, i64 %128
  %130 = load i32, i32* %3, align 4
  %131 = sub nsw i32 %130, 1
  %132 = sext i32 %131 to i64
  %133 = getelementptr inbounds [100 x i32], [100 x i32]* %129, i64 0, i64 %132
  %134 = load i32, i32* %133, align 4
  %135 = sub nsw i32 %125, %134
  store i32 %135, i32* %9, align 4
  %136 = load i32, i32* %9, align 4
  %137 = call i32 (i8*, ...) @printf(i8* getelementptr inbounds ([4 x i8], [4 x i8]* @.str.2, i64 0, i64 0), i32 %136)
  br label %138

138:                                              ; preds = %106, %49
  store i32 0, i32* %9, align 4
  br label %139

139:                                              ; preds = %138
  %140 = load i32, i32* %7, align 4
  %141 = add nsw i32 %140, 1
  store i32 %141, i32* %7, align 4
  br label %12

142:                                              ; preds = %12
  %143 = call i32 (i8*, ...) @__isoc99_scanf(i8* getelementptr inbounds ([3 x i8], [3 x i8]* @.str, i64 0, i64 0), i32* %5)
  ret i32 0
}

declare dso_local i32 @__isoc99_scanf(i8*, ...) #1

declare dso_local i32 @printf(i8*, ...) #1


!llvm.module.flags = !{!0}
!llvm.ident = !{!1}

!0 = !{i32 1, !"wchar_size", i32 4}
!1 = !{!"clang version 10.0.0-4ubuntu1 "}
